target datalayout = "e-m:e-p270:32:32-p271:32:32-p272:64:64-i64:64-i128:128-f80:128-n8:16:32:64-S128"
target triple = "x86_64-unknown-linux-gnu"

%class.dep_intervals = type { ptr, %class.mpq_manager, %"class.dep_intervals::im_config", %class.interval_manager }
%class.mpq_manager = type { %class.mpz_manager, %class.mpz, %class.mpz, %class.mpz, %class.mpz, %class.mpq, %class.mpq }
%class.mpz_manager = type { %class.small_object_allocator, %"class.std::recursive_mutex", %class.mpn_manager, i32, %class.mpz, %class.mpz }
%class.small_object_allocator = type { [32 x ptr], [32 x ptr], i64 }
%"class.std::recursive_mutex" = type { %"class.std::__recursive_mutex_base" }
%"class.std::__recursive_mutex_base" = type { %union.pthread_mutex_t }
%union.pthread_mutex_t = type { %struct.__pthread_mutex_s }
%struct.__pthread_mutex_s = type { i32, i32, i32, i32, i32, i16, i16, %struct.__pthread_internal_list }
%struct.__pthread_internal_list = type { ptr, ptr }
%class.mpn_manager = type { i8 }
%class.mpz = type { i32, i8, ptr }
%class.mpq = type { %class.mpz, %class.mpz }
%"class.dep_intervals::im_config" = type { ptr, ptr }
%class.interval_manager = type { ptr, %"class.dep_intervals::im_config", %class.mpq, %class.mpq, %class.mpq, %class.mpq, %class.mpq, %class.mpq, %class.mpq, %class.mpq, %class.mpq, i32, %"struct.dep_intervals::im_config::interval", %"struct.dep_intervals::im_config::interval", %"struct.dep_intervals::im_config::interval", %"struct.dep_intervals::im_config::interval" }
%"struct.dep_intervals::im_config::interval" = type { %class.mpq, %class.mpq, i8, ptr, ptr }
%class.scoped_dependency_manager = type { %"class.scoped_dependency_manager<unsigned int>::config::value_manager", %"class.scoped_dependency_manager<unsigned int>::config::allocator", %class.dependency_manager }
%"class.scoped_dependency_manager<unsigned int>::config::value_manager" = type { i8 }
%"class.scoped_dependency_manager<unsigned int>::config::allocator" = type { %class.region }
%class.region = type { ptr, ptr, ptr, ptr, ptr }
%class.dependency_manager = type { ptr, ptr, %class.ptr_vector.4 }
%class.ptr_vector.4 = type { %class.vector.5 }
%class.vector.5 = type { ptr }
%"struct.dependency_manager<scoped_dependency_manager<unsigned int>::config>::join" = type { %"class.dependency_manager<scoped_dependency_manager<unsigned int>::config>::dependency", [2 x ptr] }
%"class.dependency_manager<scoped_dependency_manager<unsigned int>::config>::dependency" = type { i32 }

; Function Attrs: mustprogress nounwind uwtable
define linkonce_odr hidden void @_ZN18dependency_managerIN25scoped_dependency_managerIjE6configEE10dependencyC2Eb(ptr noundef nonnull align 4 dereferenceable(4) %this, i1 noundef zeroext %leaf) unnamed_addr #5 comdat align 2 {
entry:
  %this.addr = alloca ptr, align 8
  %leaf.addr = alloca i8, align 1
  store ptr %this, ptr %this.addr, align 8
  %frombool = zext i1 %leaf to i8
  store i8 %frombool, ptr %leaf.addr, align 1
  %this1 = load ptr, ptr %this.addr, align 8
  %bf.load = load i32, ptr %this1, align 4
  %bf.clear = and i32 %bf.load, -1073741824
  %bf.set = or i32 %bf.clear, 0
  store i32 %bf.set, ptr %this1, align 4
  %bf.load2 = load i32, ptr %this1, align 4
  %bf.clear3 = and i32 %bf.load2, -1073741825
  %bf.set4 = or i32 %bf.clear3, 0
  store i32 %bf.set4, ptr %this1, align 4
  %0 = load i8, ptr %leaf.addr, align 1
  %tobool = trunc i8 %0 to i1
  %conv = zext i1 %tobool to i32
  %bf.load5 = load i32, ptr %this1, align 4
  %bf.value = and i32 %conv, 1
  %bf.shl = shl i32 %bf.value, 31
  %bf.clear6 = and i32 %bf.load5, 2147483647
  %bf.set7 = or i32 %bf.clear6, %bf.shl
  store i32 %bf.set7, ptr %this1, align 4
  ret void
}

; Function Attrs: mustprogress uwtable
define linkonce_odr hidden void @_ZN18dependency_managerIN25scoped_dependency_managerIjE6configEE4joinC2EPNS3_10dependencyES6_(ptr noundef nonnull align 8 dereferenceable(24) %this, ptr noundef %d1, ptr noundef %d2) unnamed_addr #4 comdat align 2 {
entry:
  %this.addr = alloca ptr, align 8
  %d1.addr = alloca ptr, align 8
  %d2.addr = alloca ptr, align 8
  store ptr %this, ptr %this.addr, align 8
  store ptr %d1, ptr %d1.addr, align 8
  store ptr %d2, ptr %d2.addr, align 8
  %this1 = load ptr, ptr %this.addr, align 8
  call void @_ZN18dependency_managerIN25scoped_dependency_managerIjE6configEE10dependencyC2Eb(ptr noundef nonnull align 4 dereferenceable(4) %this1, i1 noundef zeroext false)
  %0 = load ptr, ptr %d1.addr, align 8
  %m_children = getelementptr inbounds %"struct.dependency_manager<scoped_dependency_manager<unsigned int>::config>::join", ptr %this1, i32 0, i32 1
  %arrayidx = getelementptr inbounds [2 x ptr], ptr %m_children, i64 0, i64 0
  store ptr %0, ptr %arrayidx, align 8
  %1 = load ptr, ptr %d2.addr, align 8
  %m_children2 = getelementptr inbounds %"struct.dependency_manager<scoped_dependency_manager<unsigned int>::config>::join", ptr %this1, i32 0, i32 1
  %arrayidx3 = getelementptr inbounds [2 x ptr], ptr %m_children2, i64 0, i64 1
  store ptr %1, ptr %arrayidx3, align 8
  ret void
}

; Function Attrs: mustprogress nounwind uwtable
define linkonce_odr hidden void @_ZN18dependency_managerIN25scoped_dependency_managerIjE6configEE7inc_refEPNS3_10dependencyE(ptr noundef nonnull align 8 dereferenceable(24) %this, ptr noundef %d) #5 comdat align 2 {
entry:
  %this.addr = alloca ptr, align 8
  %d.addr = alloca ptr, align 8
  store ptr %this, ptr %this.addr, align 8
  store ptr %d, ptr %d.addr, align 8
  %0 = load ptr, ptr %d.addr, align 8
  %tobool = icmp ne ptr %0, null
  br i1 %tobool, label %if.then, label %if.end

if.then:                                          ; preds = %entry
  %1 = load ptr, ptr %d.addr, align 8
  %bf.load = load i32, ptr %1, align 4
  %bf.clear = and i32 %bf.load, 1073741823
  %inc = add i32 %bf.clear, 1
  %bf.load2 = load i32, ptr %1, align 4
  %bf.value = and i32 %inc, 1073741823
  %bf.clear3 = and i32 %bf.load2, -1073741824
  %bf.set = or i32 %bf.clear3, %bf.value
  store i32 %bf.set, ptr %1, align 4
  br label %if.end

if.end:                                           ; preds = %if.then, %entry
  ret void
}

; Function Attrs: mustprogress uwtable
define linkonce_odr hidden noundef ptr @_ZN25scoped_dependency_managerIjE6config9allocator8allocateEm(ptr noundef nonnull align 8 dereferenceable(40) %this, i64 noundef %sz) #4 comdat align 2 {
entry:
  %this.addr = alloca ptr, align 8
  %sz.addr = alloca i64, align 8
  store ptr %this, ptr %this.addr, align 8
  store i64 %sz, ptr %sz.addr, align 8
  %this1 = load ptr, ptr %this.addr, align 8
  %m_region = getelementptr inbounds %"class.scoped_dependency_manager<unsigned int>::config::allocator", ptr %this1, i32 0, i32 0
  %0 = load i64, ptr %sz.addr, align 8
  %call = call noundef ptr @_ZN6region8allocateEm(ptr noundef nonnull align 8 dereferenceable(40) %m_region, i64 noundef %0)
  ret ptr %call
}

; Function Attrs: mustprogress uwtable
define linkonce_odr hidden noundef ptr @_ZN18dependency_managerIN25scoped_dependency_managerIjE6configEE7mk_joinEPNS3_10dependencyES5_(ptr noundef nonnull align 8 dereferenceable(24) %this, ptr noundef %d1, ptr noundef %d2) #4 comdat align 2 {
entry:
  %retval = alloca ptr, align 8
  %this.addr = alloca ptr, align 8
  %d1.addr = alloca ptr, align 8
  %d2.addr = alloca ptr, align 8
  %mem = alloca ptr, align 8
  store ptr %this, ptr %this.addr, align 8
  store ptr %d1, ptr %d1.addr, align 8
  store ptr %d2, ptr %d2.addr, align 8
  %this1 = load ptr, ptr %this.addr, align 8
  %0 = load ptr, ptr %d1.addr, align 8
  %cmp = icmp eq ptr %0, null
  br i1 %cmp, label %if.then, label %if.else

if.then:                                          ; preds = %entry
  %1 = load ptr, ptr %d2.addr, align 8
  store ptr %1, ptr %retval, align 8
  br label %return

if.else:                                          ; preds = %entry
  %2 = load ptr, ptr %d2.addr, align 8
  %cmp2 = icmp eq ptr %2, null
  br i1 %cmp2, label %if.then3, label %if.else4

if.then3:                                         ; preds = %if.else
  %3 = load ptr, ptr %d1.addr, align 8
  store ptr %3, ptr %retval, align 8
  br label %return

if.else4:                                         ; preds = %if.else
  %4 = load ptr, ptr %d1.addr, align 8
  %5 = load ptr, ptr %d2.addr, align 8
  %cmp5 = icmp eq ptr %4, %5
  br i1 %cmp5, label %if.then6, label %if.else7

if.then6:                                         ; preds = %if.else4
  %6 = load ptr, ptr %d1.addr, align 8
  store ptr %6, ptr %retval, align 8
  br label %return

if.else7:                                         ; preds = %if.else4
  %m_allocator = getelementptr inbounds %class.dependency_manager, ptr %this1, i32 0, i32 1
  %7 = load ptr, ptr %m_allocator, align 8
  %call = call noundef ptr @_ZN25scoped_dependency_managerIjE6config9allocator8allocateEm(ptr noundef nonnull align 8 dereferenceable(40) %7, i64 noundef 24)
  store ptr %call, ptr %mem, align 8
  %8 = load ptr, ptr %d1.addr, align 8
  call void @_ZN18dependency_managerIN25scoped_dependency_managerIjE6configEE7inc_refEPNS3_10dependencyE(ptr noundef nonnull align 8 dereferenceable(24) %this1, ptr noundef %8)
  %9 = load ptr, ptr %d2.addr, align 8
  call void @_ZN18dependency_managerIN25scoped_dependency_managerIjE6configEE7inc_refEPNS3_10dependencyE(ptr noundef nonnull align 8 dereferenceable(24) %this1, ptr noundef %9)
  %10 = load ptr, ptr %mem, align 8
  %11 = load ptr, ptr %d1.addr, align 8
  %12 = load ptr, ptr %d2.addr, align 8
  call void @_ZN18dependency_managerIN25scoped_dependency_managerIjE6configEE4joinC2EPNS3_10dependencyES6_(ptr noundef nonnull align 8 dereferenceable(24) %10, ptr noundef %11, ptr noundef %12)
  store ptr %10, ptr %retval, align 8
  br label %return

return:                                           ; preds = %if.else7, %if.then6, %if.then3, %if.then
  %13 = load ptr, ptr %retval, align 8
  ret ptr %13
}

; Function Attrs: mustprogress uwtable
define linkonce_odr hidden noundef ptr @_ZN25scoped_dependency_managerIjE7mk_joinEPN18dependency_managerINS0_6configEE10dependencyES5_(ptr noundef nonnull align 8 dereferenceable(72) %this, ptr noundef %d1, ptr noundef %d2) #4 comdat align 2 {
entry:
  %this.addr = alloca ptr, align 8
  %d1.addr = alloca ptr, align 8
  %d2.addr = alloca ptr, align 8
  store ptr %this, ptr %this.addr, align 8
  store ptr %d1, ptr %d1.addr, align 8
  store ptr %d2, ptr %d2.addr, align 8
  %this1 = load ptr, ptr %this.addr, align 8
  %m_dep_manager = getelementptr inbounds %class.scoped_dependency_manager, ptr %this1, i32 0, i32 2
  %0 = load ptr, ptr %d1.addr, align 8
  %1 = load ptr, ptr %d2.addr, align 8
  %call = call noundef ptr @_ZN18dependency_managerIN25scoped_dependency_managerIjE6configEE7mk_joinEPNS3_10dependencyES5_(ptr noundef nonnull align 8 dereferenceable(24) %m_dep_manager, ptr noundef %0, ptr noundef %1)
  ret ptr %call
}

; Function Attrs: mustprogress uwtable
define linkonce_odr hidden noundef ptr @_ZN13dep_intervals7mk_joinEPN18dependency_managerIN25scoped_dependency_managerIjE6configEE10dependencyES6_(ptr noundef nonnull align 8 dereferenceable(1424) %this, ptr noundef %a, ptr noundef %b) #4 comdat align 2 {
entry:
  %this.addr = alloca ptr, align 8
  %a.addr = alloca ptr, align 8
  %b.addr = alloca ptr, align 8
  store ptr %this, ptr %this.addr, align 8
  store ptr %a, ptr %a.addr, align 8
  store ptr %b, ptr %b.addr, align 8
  %this1 = load ptr, ptr %this.addr, align 8
  %m_dep_manager = getelementptr inbounds %class.dep_intervals, ptr %this1, i32 0, i32 0
  %0 = load ptr, ptr %m_dep_manager, align 8
  %1 = load ptr, ptr %a.addr, align 8
  %2 = load ptr, ptr %b.addr, align 8
  %call = call noundef ptr @_ZN25scoped_dependency_managerIjE7mk_joinEPN18dependency_managerINS0_6configEE10dependencyES5_(ptr noundef nonnull align 8 dereferenceable(72) %0, ptr noundef %1, ptr noundef %2)
  ret ptr %call
}

; Function Attrs: mustprogress uwtable
define hidden void @_ZN13dep_intervals31set_zero_interval_deps_for_multERNS_9im_config8intervalE(ptr noundef nonnull align 8 dereferenceable(1424) %this, ptr noundef nonnull align 8 dereferenceable(88) %a) #4 align 2 {
entry:
  %this.addr = alloca ptr, align 8
  %a.addr = alloca ptr, align 8
  store ptr %this, ptr %this.addr, align 8
  store ptr %a, ptr %a.addr, align 8
  %this1 = load ptr, ptr %this.addr, align 8
  %0 = load ptr, ptr %a.addr, align 8
  %m_lower_dep = getelementptr inbounds %"struct.dep_intervals::im_config::interval", ptr %0, i32 0, i32 3
  %1 = load ptr, ptr %m_lower_dep, align 8
  %2 = load ptr, ptr %a.addr, align 8
  %m_upper_dep = getelementptr inbounds %"struct.dep_intervals::im_config::interval", ptr %2, i32 0, i32 4
  %3 = load ptr, ptr %m_upper_dep, align 8
  %call = call noundef ptr @_ZN13dep_intervals7mk_joinEPN18dependency_managerIN25scoped_dependency_managerIjE6configEE10dependencyES6_(ptr noundef nonnull align 8 dereferenceable(1424) %this1, ptr noundef %1, ptr noundef %3)
  %4 = load ptr, ptr %a.addr, align 8
  %m_lower_dep2 = getelementptr inbounds %"struct.dep_intervals::im_config::interval", ptr %4, i32 0, i32 3
  store ptr %call, ptr %m_lower_dep2, align 8
  %5 = load ptr, ptr %a.addr, align 8
  %m_lower_dep3 = getelementptr inbounds %"struct.dep_intervals::im_config::interval", ptr %5, i32 0, i32 3
  %6 = load ptr, ptr %m_lower_dep3, align 8
  %7 = load ptr, ptr %a.addr, align 8
  %m_upper_dep4 = getelementptr inbounds %"struct.dep_intervals::im_config::interval", ptr %7, i32 0, i32 4
  store ptr %6, ptr %m_upper_dep4, align 8
  ret void
}