; Function Attrs: mustprogress uwtable
define hidden void @_ZN13dep_intervals31set_zero_interval_deps_for_multERNS_9im_config8intervalE(ptr nocapture noundef nonnull readonly align 8 dereferenceable(1424) %this, ptr nocapture noundef nonnull align 8 dereferenceable(88) %a) local_unnamed_addr #3 align 2 {
entry:
  %m_lower_dep = getelementptr inbounds i8, ptr %a, i64 72
  %0 = load ptr, ptr %m_lower_dep, align 8
  %m_upper_dep = getelementptr inbounds i8, ptr %a, i64 80
  %1 = load ptr, ptr %m_upper_dep, align 8
  %2 = load ptr, ptr %this, align 8
  %cmp.i.i.i = icmp eq ptr %0, null
  br i1 %cmp.i.i.i, label %_ZN13dep_intervals7mk_joinEPN18dependency_managerIN25scoped_dependency_managerIjE6configEE10dependencyES6_.exit, label %if.else.i.i.i

if.else.i.i.i:                                    ; preds = %entry
  %cmp2.i.i.i = icmp eq ptr %1, null
  %cmp5.i.i.i = icmp eq ptr %0, %1
  %or.cond.i.i.i = or i1 %cmp2.i.i.i, %cmp5.i.i.i
  br i1 %or.cond.i.i.i, label %_ZN13dep_intervals7mk_joinEPN18dependency_managerIN25scoped_dependency_managerIjE6configEE10dependencyES6_.exit, label %_ZN18dependency_managerIN25scoped_dependency_managerIjE6configEE7inc_refEPNS3_10dependencyE.exit17.i.i.i

_ZN18dependency_managerIN25scoped_dependency_managerIjE6configEE7inc_refEPNS3_10dependencyE.exit17.i.i.i: ; preds = %if.else.i.i.i
  %m_allocator.i.i.i = getelementptr inbounds i8, ptr %2, i64 56
  %3 = load ptr, ptr %m_allocator.i.i.i, align 8
  %call.i.i.i.i = tail call noundef ptr @_ZN6region8allocateEm(ptr noundef nonnull align 8 dereferenceable(40) %3, i64 noundef 24)
  %bf.load.i.i.i.i = load i32, ptr %0, align 4
  %inc.i.i.i.i = add i32 %bf.load.i.i.i.i, 1
  %bf.value.i.i.i.i = and i32 %inc.i.i.i.i, 1073741823
  %bf.clear3.i.i.i.i = and i32 %bf.load.i.i.i.i, -1073741824
  %bf.set.i.i.i.i = or disjoint i32 %bf.value.i.i.i.i, %bf.clear3.i.i.i.i
  store i32 %bf.set.i.i.i.i, ptr %0, align 4
  %bf.load.i12.i.i.i = load i32, ptr %1, align 4
  %inc.i13.i.i.i = add i32 %bf.load.i12.i.i.i, 1
  %bf.value.i14.i.i.i = and i32 %inc.i13.i.i.i, 1073741823
  %bf.clear3.i15.i.i.i = and i32 %bf.load.i12.i.i.i, -1073741824
  %bf.set.i16.i.i.i = or disjoint i32 %bf.value.i14.i.i.i, %bf.clear3.i15.i.i.i
  store i32 %bf.set.i16.i.i.i, ptr %1, align 4
  store i32 0, ptr %call.i.i.i.i, align 4
  %m_children.i.i.i.i = getelementptr inbounds i8, ptr %call.i.i.i.i, i64 8
  store ptr %0, ptr %m_children.i.i.i.i, align 8
  %arrayidx3.i.i.i.i = getelementptr inbounds i8, ptr %call.i.i.i.i, i64 16
  store ptr %1, ptr %arrayidx3.i.i.i.i, align 8
  br label %_ZN13dep_intervals7mk_joinEPN18dependency_managerIN25scoped_dependency_managerIjE6configEE10dependencyES6_.exit

_ZN13dep_intervals7mk_joinEPN18dependency_managerIN25scoped_dependency_managerIjE6configEE10dependencyES6_.exit: ; preds = %entry, %if.else.i.i.i, %_ZN18dependency_managerIN25scoped_dependency_managerIjE6configEE7inc_refEPNS3_10dependencyE.exit17.i.i.i
  %retval.0.i.i.i = phi ptr [ %call.i.i.i.i, %_ZN18dependency_managerIN25scoped_dependency_managerIjE6configEE7inc_refEPNS3_10dependencyE.exit17.i.i.i ], [ %1, %entry ], [ %0, %if.else.i.i.i ]
  store ptr %retval.0.i.i.i, ptr %m_lower_dep, align 8
  store ptr %retval.0.i.i.i, ptr %m_upper_dep, align 8
  ret void
}